target datalayout = "e-m:e-p270:32:32-p271:32:32-p272:64:64-i64:64-i128:128-f80:128-n8:16:32:64-S128"
target triple = "x86_64-pc-linux-gnu"

%union.Value = type { ptr }
%struct.lua_State = type { ptr, i8, i8, i8, ptr, ptr, ptr, ptr, ptr, ptr, ptr, ptr, ptr, i32, i32, i16, i16, i8, i8, i32, i32, ptr, %struct.lua_TValue, %struct.lua_TValue, ptr, ptr, ptr, i64 }
%struct.lua_TValue = type { %union.Value, i32 }
%struct.global_State = type { %struct.stringtable, ptr, ptr, i8, i8, i32, ptr, ptr, ptr, ptr, ptr, ptr, %struct.Mbuffer, i64, i64, i64, i64, i32, i32, ptr, %struct.lua_TValue, ptr, %struct.UpVal, [9 x ptr], [17 x ptr] }
%struct.stringtable = type { ptr, i32, i32 }
%struct.Mbuffer = type { ptr, i64, i64 }
%struct.UpVal = type { ptr, i8, i8, ptr, %union.anon }
%union.anon = type { %struct.lua_TValue }

; Function Attrs: nounwind uwtable
define internal void @luaC_step(ptr noundef %0) #0 {
  %2 = alloca ptr, align 8
  %3 = alloca ptr, align 8
  %4 = alloca i64, align 8
  store ptr %0, ptr %2, align 8, !tbaa !11
  call void @llvm.lifetime.start.p0(i64 8, ptr %3) #14
  %5 = load ptr, ptr %2, align 8, !tbaa !11
  %6 = getelementptr inbounds nuw %struct.lua_State, ptr %5, i32 0, i32 6
  %7 = load ptr, ptr %6, align 8, !tbaa !25
  store ptr %7, ptr %3, align 8, !tbaa !72
  call void @llvm.lifetime.start.p0(i64 8, ptr %4) #14
  %8 = load ptr, ptr %3, align 8, !tbaa !72
  %9 = getelementptr inbounds nuw %struct.global_State, ptr %8, i32 0, i32 18
  %10 = load i32, ptr %9, align 4, !tbaa !95
  %11 = mul i32 10, %10
  %12 = zext i32 %11 to i64
  store i64 %12, ptr %4, align 8, !tbaa !53
  %13 = load i64, ptr %4, align 8, !tbaa !53
  %14 = icmp eq i64 %13, 0
  br i1 %14, label %15, label %16

15:                                               ; preds = %1
  store i64 9223372036854775806, ptr %4, align 8, !tbaa !53
  br label %16

16:                                               ; preds = %15, %1
  %17 = load ptr, ptr %3, align 8, !tbaa !72
  %18 = getelementptr inbounds nuw %struct.global_State, ptr %17, i32 0, i32 14
  %19 = load i64, ptr %18, align 8, !tbaa !36
  %20 = load ptr, ptr %3, align 8, !tbaa !72
  %21 = getelementptr inbounds nuw %struct.global_State, ptr %20, i32 0, i32 13
  %22 = load i64, ptr %21, align 8, !tbaa !42
  %23 = sub i64 %19, %22
  %24 = load ptr, ptr %3, align 8, !tbaa !72
  %25 = getelementptr inbounds nuw %struct.global_State, ptr %24, i32 0, i32 16
  %26 = load i64, ptr %25, align 8, !tbaa !96
  %27 = add i64 %26, %23
  store i64 %27, ptr %25, align 8, !tbaa !96
  br label %28

28:                                               ; preds = %40, %16
  %29 = load ptr, ptr %2, align 8, !tbaa !11
  %30 = call i64 @singlestep(ptr noundef %29)
  %31 = load i64, ptr %4, align 8, !tbaa !53
  %32 = sub nsw i64 %31, %30
  store i64 %32, ptr %4, align 8, !tbaa !53
  %33 = load ptr, ptr %3, align 8, !tbaa !72
  %34 = getelementptr inbounds nuw %struct.global_State, ptr %33, i32 0, i32 4
  %35 = load i8, ptr %34, align 1, !tbaa !86
  %36 = zext i8 %35 to i32
  %37 = icmp eq i32 %36, 0
  br i1 %37, label %38, label %39

38:                                               ; preds = %28
  br label %43

39:                                               ; preds = %28
  br label %40

40:                                               ; preds = %39
  %41 = load i64, ptr %4, align 8, !tbaa !53
  %42 = icmp sgt i64 %41, 0
  br i1 %42, label %28, label %43, !llvm.loop !195

43:                                               ; preds = %40, %38
  %44 = load ptr, ptr %3, align 8, !tbaa !72
  %45 = getelementptr inbounds nuw %struct.global_State, ptr %44, i32 0, i32 4
  %46 = load i8, ptr %45, align 1, !tbaa !86
  %47 = zext i8 %46 to i32
  %48 = icmp ne i32 %47, 0
  br i1 %48, label %49, label %72

49:                                               ; preds = %43
  %50 = load ptr, ptr %3, align 8, !tbaa !72
  %51 = getelementptr inbounds nuw %struct.global_State, ptr %50, i32 0, i32 16
  %52 = load i64, ptr %51, align 8, !tbaa !96
  %53 = icmp ult i64 %52, 1024
  br i1 %53, label %54, label %61

54:                                               ; preds = %49
  %55 = load ptr, ptr %3, align 8, !tbaa !72
  %56 = getelementptr inbounds nuw %struct.global_State, ptr %55, i32 0, i32 14
  %57 = load i64, ptr %56, align 8, !tbaa !36
  %58 = add i64 %57, 1024
  %59 = load ptr, ptr %3, align 8, !tbaa !72
  %60 = getelementptr inbounds nuw %struct.global_State, ptr %59, i32 0, i32 13
  store i64 %58, ptr %60, align 8, !tbaa !42
  br label %71

61:                                               ; preds = %49
  %62 = load ptr, ptr %3, align 8, !tbaa !72
  %63 = getelementptr inbounds nuw %struct.global_State, ptr %62, i32 0, i32 16
  %64 = load i64, ptr %63, align 8, !tbaa !96
  %65 = sub i64 %64, 1024
  store i64 %65, ptr %63, align 8, !tbaa !96
  %66 = load ptr, ptr %3, align 8, !tbaa !72
  %67 = getelementptr inbounds nuw %struct.global_State, ptr %66, i32 0, i32 14
  %68 = load i64, ptr %67, align 8, !tbaa !36
  %69 = load ptr, ptr %3, align 8, !tbaa !72
  %70 = getelementptr inbounds nuw %struct.global_State, ptr %69, i32 0, i32 13
  store i64 %68, ptr %70, align 8, !tbaa !42
  br label %71

71:                                               ; preds = %61, %54
  br label %84

72:                                               ; preds = %43
  %73 = load ptr, ptr %3, align 8, !tbaa !72
  %74 = getelementptr inbounds nuw %struct.global_State, ptr %73, i32 0, i32 15
  %75 = load i64, ptr %74, align 8, !tbaa !196
  %76 = udiv i64 %75, 100
  %77 = load ptr, ptr %3, align 8, !tbaa !72
  %78 = getelementptr inbounds nuw %struct.global_State, ptr %77, i32 0, i32 17
  %79 = load i32, ptr %78, align 8, !tbaa !94
  %80 = sext i32 %79 to i64
  %81 = mul i64 %76, %80
  %82 = load ptr, ptr %3, align 8, !tbaa !72
  %83 = getelementptr inbounds nuw %struct.global_State, ptr %82, i32 0, i32 13
  store i64 %81, ptr %83, align 8, !tbaa !42
  br label %84

84:                                               ; preds = %72, %71
  call void @llvm.lifetime.end.p0(i64 8, ptr %4) #14
  call void @llvm.lifetime.end.p0(i64 8, ptr %3) #14
  ret void
}

; Function Attrs: nounwind uwtable
define internal void @lua_pushlstring(ptr noundef %0, ptr noundef %1, i64 noundef %2) #0 {
  %4 = alloca ptr, align 8
  %5 = alloca ptr, align 8
  %6 = alloca i64, align 8
  %7 = alloca ptr, align 8
  store ptr %0, ptr %4, align 8, !tbaa !11
  store ptr %1, ptr %5, align 8, !tbaa !13
  store i64 %2, ptr %6, align 8, !tbaa !53
  %8 = load ptr, ptr %4, align 8, !tbaa !11
  %9 = getelementptr inbounds nuw %struct.lua_State, ptr %8, i32 0, i32 6
  %10 = load ptr, ptr %9, align 8, !tbaa !25
  %11 = getelementptr inbounds nuw %struct.global_State, ptr %10, i32 0, i32 14
  %12 = load i64, ptr %11, align 8, !tbaa !36
  %13 = load ptr, ptr %4, align 8, !tbaa !11
  %14 = getelementptr inbounds nuw %struct.lua_State, ptr %13, i32 0, i32 6
  %15 = load ptr, ptr %14, align 8, !tbaa !25
  %16 = getelementptr inbounds nuw %struct.global_State, ptr %15, i32 0, i32 13
  %17 = load i64, ptr %16, align 8, !tbaa !42
  %18 = icmp uge i64 %12, %17
  br i1 %18, label %19, label %21

19:                                               ; preds = %3
  %20 = load ptr, ptr %4, align 8, !tbaa !11
  call void @luaC_step(ptr noundef %20)
  br label %21

21:                                               ; preds = %19, %3
  call void @llvm.lifetime.start.p0(i64 8, ptr %7) #14
  %22 = load ptr, ptr %4, align 8, !tbaa !11
  %23 = getelementptr inbounds nuw %struct.lua_State, ptr %22, i32 0, i32 4
  %24 = load ptr, ptr %23, align 8, !tbaa !43
  store ptr %24, ptr %7, align 8, !tbaa !44
  %25 = load ptr, ptr %4, align 8, !tbaa !11
  %26 = load ptr, ptr %5, align 8, !tbaa !13
  %27 = load i64, ptr %6, align 8, !tbaa !53
  %28 = call ptr @luaS_newlstr(ptr noundef %25, ptr noundef %26, i64 noundef %27)
  %29 = load ptr, ptr %7, align 8, !tbaa !44
  %30 = getelementptr inbounds nuw %struct.lua_TValue, ptr %29, i32 0, i32 0
  store ptr %28, ptr %30, align 8, !tbaa !45
  %31 = load ptr, ptr %7, align 8, !tbaa !44
  %32 = getelementptr inbounds nuw %struct.lua_TValue, ptr %31, i32 0, i32 1
  store i32 4, ptr %32, align 8, !tbaa !46
  call void @llvm.lifetime.end.p0(i64 8, ptr %7) #14
  %33 = load ptr, ptr %4, align 8, !tbaa !11
  %34 = getelementptr inbounds nuw %struct.lua_State, ptr %33, i32 0, i32 4
  %35 = load ptr, ptr %34, align 8, !tbaa !43
  %36 = getelementptr inbounds nuw %struct.lua_TValue, ptr %35, i32 1
  store ptr %36, ptr %34, align 8, !tbaa !43
  ret void
}

; Function Attrs: nounwind uwtable
define internal void @lua_pushnil(ptr noundef %0) #0 {
  %2 = alloca ptr, align 8
  store ptr %0, ptr %2, align 8, !tbaa !11
  %3 = load ptr, ptr %2, align 8, !tbaa !11
  %4 = getelementptr inbounds nuw %struct.lua_State, ptr %3, i32 0, i32 4
  %5 = load ptr, ptr %4, align 8, !tbaa !43
  %6 = getelementptr inbounds nuw %struct.lua_TValue, ptr %5, i32 0, i32 1
  store i32 0, ptr %6, align 8, !tbaa !46
  %7 = load ptr, ptr %2, align 8, !tbaa !11
  %8 = getelementptr inbounds nuw %struct.lua_State, ptr %7, i32 0, i32 4
  %9 = load ptr, ptr %8, align 8, !tbaa !43
  %10 = getelementptr inbounds nuw %struct.lua_TValue, ptr %9, i32 1
  store ptr %10, ptr %8, align 8, !tbaa !43
  ret void
}

; Function Attrs: nounwind uwtable
define internal void @lua_pushstring(ptr noundef %0, ptr noundef %1) #0 {
  %3 = alloca ptr, align 8
  %4 = alloca ptr, align 8
  store ptr %0, ptr %3, align 8, !tbaa !11
  store ptr %1, ptr %4, align 8, !tbaa !13
  %5 = load ptr, ptr %4, align 8, !tbaa !13
  %6 = icmp eq ptr %5, null
  br i1 %6, label %7, label %9

7:                                                ; preds = %2
  %8 = load ptr, ptr %3, align 8, !tbaa !11
  call void @lua_pushnil(ptr noundef %8)
  br label %14

9:                                                ; preds = %2
  %10 = load ptr, ptr %3, align 8, !tbaa !11
  %11 = load ptr, ptr %4, align 8, !tbaa !13
  %12 = load ptr, ptr %4, align 8, !tbaa !13
  %13 = call i64 @strlen(ptr noundef %12) #15
  call void @lua_pushlstring(ptr noundef %10, ptr noundef %11, i64 noundef %13)
  br label %14

14:                                               ; preds = %9, %7
  ret void
}