; Function Attrs: nounwind uwtable
define internal fastcc void @lua_pushstring(ptr noundef %0, ptr noundef readonly captures(address_is_null) %1) unnamed_addr #0 {
  %3 = icmp eq ptr %1, null
  br i1 %3, label %4, label %9

4:                                                ; preds = %2
  %5 = getelementptr inbounds nuw i8, ptr %0, i64 16
  %6 = load ptr, ptr %5, align 8, !tbaa !62
  %7 = getelementptr inbounds nuw i8, ptr %6, i64 8
  store i32 0, ptr %7, align 8, !tbaa !69
  %8 = getelementptr inbounds nuw i8, ptr %6, i64 16
  store ptr %8, ptr %5, align 8, !tbaa !62
  br label %58

9:                                                ; preds = %2
  %10 = tail call i64 @strlen(ptr noundef nonnull dereferenceable(1) %1) #37
  %11 = getelementptr inbounds nuw i8, ptr %0, i64 32
  %12 = load ptr, ptr %11, align 8, !tbaa !29
  %13 = getelementptr inbounds nuw i8, ptr %12, i64 120
  %14 = load i64, ptr %13, align 8, !tbaa !54
  %15 = getelementptr inbounds nuw i8, ptr %12, i64 112
  %16 = load i64, ptr %15, align 8, !tbaa !66
  %.not.i = icmp ult i64 %14, %16
  br i1 %.not.i, label %lua_pushlstring.exit, label %17

17:                                               ; preds = %9
  %18 = getelementptr inbounds nuw i8, ptr %12, i64 148
  %19 = load i32, ptr %18, align 4, !tbaa !56
  %20 = mul i32 %19, 10
  %21 = zext i32 %20 to i64
  %22 = icmp eq i32 %20, 0
  %spec.store.select.i.i = select i1 %22, i64 9223372036854775806, i64 %21
  %23 = sub nuw i64 %14, %16
  %24 = getelementptr inbounds nuw i8, ptr %12, i64 136
  %25 = load i64, ptr %24, align 8, !tbaa !57
  %26 = add i64 %23, %25
  store i64 %26, ptr %24, align 8, !tbaa !57
  %27 = getelementptr inbounds nuw i8, ptr %12, i64 33
  br label %28

28:                                               ; preds = %28, %17
  %.0.i.i = phi i64 [ %spec.store.select.i.i, %17 ], [ %30, %28 ]
  %29 = tail call fastcc i64 @singlestep(ptr noundef %0)
  %30 = sub nsw i64 %.0.i.i, %29
  %31 = load i8, ptr %27, align 1, !tbaa !50
  %32 = icmp ne i8 %31, 0
  %33 = icmp sgt i64 %30, 0
  %or.cond.i.i = select i1 %32, i1 %33, i1 false
  br i1 %or.cond.i.i, label %28, label %34, !llvm.loop !67

34:                                               ; preds = %28
  br i1 %32, label %35, label %44

35:                                               ; preds = %34
  %36 = load i64, ptr %24, align 8, !tbaa !57
  %37 = icmp ult i64 %36, 1024
  br i1 %37, label %38, label %41

38:                                               ; preds = %35
  %39 = load i64, ptr %13, align 8, !tbaa !54
  %40 = add i64 %39, 1024
  br label %luaC_step.exit.i

41:                                               ; preds = %35
  %42 = add i64 %36, -1024
  store i64 %42, ptr %24, align 8, !tbaa !57
  %43 = load i64, ptr %13, align 8, !tbaa !54
  br label %luaC_step.exit.i

44:                                               ; preds = %34
  %45 = getelementptr inbounds nuw i8, ptr %12, i64 128
  %46 = load i64, ptr %45, align 8, !tbaa !68
  %47 = udiv i64 %46, 100
  %48 = getelementptr inbounds nuw i8, ptr %12, i64 144
  %49 = load i32, ptr %48, align 8, !tbaa !55
  %50 = sext i32 %49 to i64
  %51 = mul i64 %47, %50
  br label %luaC_step.exit.i

luaC_step.exit.i:                                 ; preds = %44, %41, %38
  %.sink.i.i = phi i64 [ %40, %38 ], [ %43, %41 ], [ %51, %44 ]
  store i64 %.sink.i.i, ptr %15, align 8, !tbaa !66
  br label %lua_pushlstring.exit

lua_pushlstring.exit:                             ; preds = %9, %luaC_step.exit.i
  %52 = getelementptr inbounds nuw i8, ptr %0, i64 16
  %53 = load ptr, ptr %52, align 8, !tbaa !62
  %54 = tail call fastcc ptr @luaS_newlstr(ptr noundef %0, ptr noundef nonnull readonly %1, i64 noundef %10)
  store ptr %54, ptr %53, align 8, !tbaa !46
  %55 = getelementptr inbounds nuw i8, ptr %53, i64 8
  store i32 4, ptr %55, align 8, !tbaa !69
  %56 = load ptr, ptr %52, align 8, !tbaa !62
  %57 = getelementptr inbounds nuw i8, ptr %56, i64 16
  store ptr %57, ptr %52, align 8, !tbaa !62
  br label %58

58:                                               ; preds = %lua_pushlstring.exit, %4
  ret void
}